target datalayout = "e-m:e-p270:32:32-p271:32:32-p272:64:64-i64:64-i128:128-f80:128-n8:16:32:64-S128"
target triple = "x86_64-pc-linux-gnu"

@__const.pkcs7_verify_test.sig = private unnamed_addr constant [8 x ptr] [ptr @.str.2, ptr @.str.3, ptr @.str.4, ptr @.str.5, ptr @.str.6, ptr @.str.7, ptr @.str.8, ptr @.str.9], align 16
@.str.10 = private unnamed_addr constant [40 x i8] c"Content-Type: text/plain\0D\0A\0D\0Ahello world\00", align 1
@.str.11 = private unnamed_addr constant [29 x i8] c"../openssl/test/pkcs7_test.c\00", align 1
@.str.12 = private unnamed_addr constant [27 x i8] c"bio = BIO_new(BIO_s_mem())\00", align 1
@.str.13 = private unnamed_addr constant [60 x i8] c"msg_bio = BIO_new_mem_buf(signed_data, strlen(signed_data))\00", align 1
@.str.14 = private unnamed_addr constant [55 x i8] c"x509_bio = BIO_new_mem_buf(cert_der, sizeof(cert_der))\00", align 1
@.str.15 = private unnamed_addr constant [36 x i8] c"cert = d2i_X509_bio(x509_bio, NULL)\00", align 1
@.str.16 = private unnamed_addr constant [17 x i8] c"ERR_peek_error()\00", align 1
@.str.17 = private unnamed_addr constant [2 x i8] c"0\00", align 1
@.str.18 = private unnamed_addr constant [25 x i8] c"store = X509_STORE_new()\00", align 1
@.str.19 = private unnamed_addr constant [33 x i8] c"X509_STORE_add_cert(store, cert)\00", align 1
@.str.20 = private unnamed_addr constant [33 x i8] c"p7 = SMIME_read_PKCS7(bio, NULL)\00", align 1
@.str.21 = private unnamed_addr constant [57 x i8] c"PKCS7_verify(p7, NULL, store, msg_bio, NULL, PKCS7_TEXT)\00", align 1

; Function Attrs: nounwind uwtable
define internal i32 @pkcs7_verify_test() #0 {
  %1 = alloca i32, align 4
  %2 = alloca i64, align 8
  %3 = alloca ptr, align 8
  %4 = alloca ptr, align 8
  %5 = alloca ptr, align 8
  %6 = alloca ptr, align 8
  %7 = alloca ptr, align 8
  %8 = alloca ptr, align 8
  %9 = alloca [8 x ptr], align 16
  %10 = alloca ptr, align 8
  call void @llvm.lifetime.start.p0(i64 4, ptr %1) #5
  store i32 0, ptr %1, align 4, !tbaa !4
  call void @llvm.lifetime.start.p0(i64 8, ptr %2) #5
  call void @llvm.lifetime.start.p0(i64 8, ptr %3) #5
  store ptr null, ptr %3, align 8, !tbaa !8
  call void @llvm.lifetime.start.p0(i64 8, ptr %4) #5
  store ptr null, ptr %4, align 8, !tbaa !8
  call void @llvm.lifetime.start.p0(i64 8, ptr %5) #5
  store ptr null, ptr %5, align 8, !tbaa !8
  call void @llvm.lifetime.start.p0(i64 8, ptr %6) #5
  store ptr null, ptr %6, align 8, !tbaa !11
  call void @llvm.lifetime.start.p0(i64 8, ptr %7) #5
  store ptr null, ptr %7, align 8, !tbaa !13
  call void @llvm.lifetime.start.p0(i64 8, ptr %8) #5
  store ptr null, ptr %8, align 8, !tbaa !15
  call void @llvm.lifetime.start.p0(i64 64, ptr %9) #5
  call void @llvm.memcpy.p0.p0.i64(ptr align 16 %9, ptr align 16 @__const.pkcs7_verify_test.sig, i64 64, i1 false)
  call void @llvm.lifetime.start.p0(i64 8, ptr %10) #5
  store ptr @.str.10, ptr %10, align 8, !tbaa !17
  %11 = call ptr @BIO_s_mem()
  %12 = call ptr @BIO_new(ptr noundef %11)
  store ptr %12, ptr %5, align 8, !tbaa !8
  %13 = call i32 @test_ptr(ptr noundef @.str.11, i32 noundef 149, ptr noundef @.str.12, ptr noundef %12)
  %14 = icmp ne i32 %13, 0
  br i1 %14, label %16, label %15

15:                                               ; preds = %0
  br label %90

16:                                               ; preds = %0
  store i64 0, ptr %2, align 8, !tbaa !19
  br label %17

17:                                               ; preds = %26, %16
  %18 = load i64, ptr %2, align 8, !tbaa !19
  %19 = icmp ult i64 %18, 8
  br i1 %19, label %20, label %29

20:                                               ; preds = %17
  %21 = load ptr, ptr %5, align 8, !tbaa !8
  %22 = load i64, ptr %2, align 8, !tbaa !19
  %23 = getelementptr inbounds nuw [8 x ptr], ptr %9, i64 0, i64 %22
  %24 = load ptr, ptr %23, align 8, !tbaa !17
  %25 = call i32 @BIO_puts(ptr noundef %21, ptr noundef %24)
  br label %26

26:                                               ; preds = %20
  %27 = load i64, ptr %2, align 8, !tbaa !19
  %28 = add i64 %27, 1
  store i64 %28, ptr %2, align 8, !tbaa !19
  br label %17, !llvm.loop !21

29:                                               ; preds = %17
  %30 = load ptr, ptr %10, align 8, !tbaa !17
  %31 = load ptr, ptr %10, align 8, !tbaa !17
  %32 = call i64 @strlen(ptr noundef %31) #6
  %33 = trunc i64 %32 to i32
  %34 = call ptr @BIO_new_mem_buf(ptr noundef %30, i32 noundef %33)
  store ptr %34, ptr %3, align 8, !tbaa !8
  %35 = call i32 @test_ptr(ptr noundef @.str.11, i32 noundef 154, ptr noundef @.str.13, ptr noundef %34)
  %36 = icmp ne i32 %35, 0
  br i1 %36, label %37, label %87

37:                                               ; preds = %29
  %38 = call ptr @BIO_new_mem_buf(ptr noundef @cert_der, i32 noundef 341)
  store ptr %38, ptr %4, align 8, !tbaa !8
  %39 = call i32 @test_ptr(ptr noundef @.str.11, i32 noundef 155, ptr noundef @.str.14, ptr noundef %38)
  %40 = icmp ne i32 %39, 0
  br i1 %40, label %41, label %87

41:                                               ; preds = %37
  %42 = load ptr, ptr %4, align 8, !tbaa !8
  %43 = call ptr @d2i_X509_bio(ptr noundef %42, ptr noundef null)
  store ptr %43, ptr %6, align 8, !tbaa !11
  %44 = call i32 @test_ptr(ptr noundef @.str.11, i32 noundef 156, ptr noundef @.str.15, ptr noundef %43)
  %45 = icmp ne i32 %44, 0
  br i1 %45, label %46, label %87

46:                                               ; preds = %41
  %47 = call i64 @ERR_peek_error()
  %48 = trunc i64 %47 to i32
  %49 = call i32 @test_int_eq(ptr noundef @.str.11, i32 noundef 157, ptr noundef @.str.16, ptr noundef @.str.17, i32 noundef %48, i32 noundef 0)
  %50 = icmp ne i32 %49, 0
  br i1 %50, label %51, label %87

51:                                               ; preds = %46
  %52 = call ptr @X509_STORE_new()
  store ptr %52, ptr %7, align 8, !tbaa !13
  %53 = call i32 @test_ptr(ptr noundef @.str.11, i32 noundef 158, ptr noundef @.str.18, ptr noundef %52)
  %54 = icmp ne i32 %53, 0
  br i1 %54, label %55, label %87

55:                                               ; preds = %51
  %56 = load ptr, ptr %7, align 8, !tbaa !13
  %57 = load ptr, ptr %6, align 8, !tbaa !11
  %58 = call i32 @X509_STORE_add_cert(ptr noundef %56, ptr noundef %57)
  %59 = icmp ne i32 %58, 0
  %60 = zext i1 %59 to i32
  %61 = call i32 @test_true(ptr noundef @.str.11, i32 noundef 159, ptr noundef @.str.19, i32 noundef %60)
  %62 = icmp ne i32 %61, 0
  br i1 %62, label %63, label %87

63:                                               ; preds = %55
  %64 = load ptr, ptr %5, align 8, !tbaa !8
  %65 = call ptr @SMIME_read_PKCS7(ptr noundef %64, ptr noundef null)
  store ptr %65, ptr %8, align 8, !tbaa !15
  %66 = call i32 @test_ptr(ptr noundef @.str.11, i32 noundef 160, ptr noundef @.str.20, ptr noundef %65)
  %67 = icmp ne i32 %66, 0
  br i1 %67, label %68, label %87

68:                                               ; preds = %63
  %69 = call i64 @ERR_peek_error()
  %70 = trunc i64 %69 to i32
  %71 = call i32 @test_int_eq(ptr noundef @.str.11, i32 noundef 161, ptr noundef @.str.16, ptr noundef @.str.17, i32 noundef %70, i32 noundef 0)
  %72 = icmp ne i32 %71, 0
  br i1 %72, label %73, label %87

73:                                               ; preds = %68
  %74 = load ptr, ptr %8, align 8, !tbaa !15
  %75 = load ptr, ptr %7, align 8, !tbaa !13
  %76 = load ptr, ptr %3, align 8, !tbaa !8
  %77 = call i32 @PKCS7_verify(ptr noundef %74, ptr noundef null, ptr noundef %75, ptr noundef %76, ptr noundef null, i32 noundef 1)
  %78 = icmp ne i32 %77, 0
  %79 = zext i1 %78 to i32
  %80 = call i32 @test_true(ptr noundef @.str.11, i32 noundef 162, ptr noundef @.str.21, i32 noundef %79)
  %81 = icmp ne i32 %80, 0
  br i1 %81, label %82, label %87

82:                                               ; preds = %73
  %83 = call i64 @ERR_peek_error()
  %84 = trunc i64 %83 to i32
  %85 = call i32 @test_int_eq(ptr noundef @.str.11, i32 noundef 163, ptr noundef @.str.16, ptr noundef @.str.17, i32 noundef %84, i32 noundef 0)
  %86 = icmp ne i32 %85, 0
  br label %87

87:                                               ; preds = %82, %73, %68, %63, %55, %51, %46, %41, %37, %29
  %88 = phi i1 [ false, %73 ], [ false, %68 ], [ false, %63 ], [ false, %55 ], [ false, %51 ], [ false, %46 ], [ false, %41 ], [ false, %37 ], [ false, %29 ], [ %86, %82 ]
  %89 = zext i1 %88 to i32
  store i32 %89, ptr %1, align 4, !tbaa !4
  br label %90

90:                                               ; preds = %87, %15
  %91 = load ptr, ptr %7, align 8, !tbaa !13
  call void @X509_STORE_free(ptr noundef %91)
  %92 = load ptr, ptr %6, align 8, !tbaa !11
  call void @X509_free(ptr noundef %92)
  %93 = load ptr, ptr %8, align 8, !tbaa !15
  call void @PKCS7_free(ptr noundef %93)
  %94 = load ptr, ptr %3, align 8, !tbaa !8
  %95 = call i32 @BIO_free(ptr noundef %94)
  %96 = load ptr, ptr %4, align 8, !tbaa !8
  %97 = call i32 @BIO_free(ptr noundef %96)
  %98 = load ptr, ptr %5, align 8, !tbaa !8
  %99 = call i32 @BIO_free(ptr noundef %98)
  %100 = load i32, ptr %1, align 4, !tbaa !4
  call void @llvm.lifetime.end.p0(i64 8, ptr %10) #5
  call void @llvm.lifetime.end.p0(i64 64, ptr %9) #5
  call void @llvm.lifetime.end.p0(i64 8, ptr %8) #5
  call void @llvm.lifetime.end.p0(i64 8, ptr %7) #5
  call void @llvm.lifetime.end.p0(i64 8, ptr %6) #5
  call void @llvm.lifetime.end.p0(i64 8, ptr %5) #5
  call void @llvm.lifetime.end.p0(i64 8, ptr %4) #5
  call void @llvm.lifetime.end.p0(i64 8, ptr %3) #5
  call void @llvm.lifetime.end.p0(i64 8, ptr %2) #5
  call void @llvm.lifetime.end.p0(i64 4, ptr %1) #5
  ret i32 %100
}