; Function Attrs: nounwind uwtable
define internal range(i32 0, 2) i32 @pkcs7_verify_test() #0 {
  %1 = tail call ptr @BIO_s_mem() #4
  %2 = tail call ptr @BIO_new(ptr noundef %1) #4
  %3 = tail call i32 @test_ptr(ptr noundef nonnull @.str.11, i32 noundef 149, ptr noundef nonnull @.str.12, ptr noundef %2) #4
  %.not = icmp eq i32 %3, 0
  br i1 %.not, label %47, label %.preheader

.preheader:                                       ; preds = %0, %.preheader
  %.02737 = phi i64 [ %7, %.preheader ], [ 0, %0 ]
  %4 = getelementptr inbounds nuw [8 x ptr], ptr @__const.pkcs7_verify_test.sig, i64 0, i64 %.02737
  %5 = load ptr, ptr %4, align 8, !tbaa !4
  %6 = tail call i32 @BIO_puts(ptr noundef %2, ptr noundef %5) #4
  %7 = add nuw nsw i64 %.02737, 1
  %exitcond.not = icmp eq i64 %7, 8
  br i1 %exitcond.not, label %8, label %.preheader, !llvm.loop !9

8:                                                ; preds = %.preheader
  %9 = tail call ptr @BIO_new_mem_buf(ptr noundef nonnull @.str.10, i32 noundef 39) #4
  %10 = tail call i32 @test_ptr(ptr noundef nonnull @.str.11, i32 noundef 154, ptr noundef nonnull @.str.13, ptr noundef %9) #4
  %.not28 = icmp eq i32 %10, 0
  br i1 %.not28, label %47, label %11

11:                                               ; preds = %8
  %12 = tail call ptr @BIO_new_mem_buf(ptr noundef nonnull @cert_der, i32 noundef 341) #4
  %13 = tail call i32 @test_ptr(ptr noundef nonnull @.str.11, i32 noundef 155, ptr noundef nonnull @.str.14, ptr noundef %12) #4
  %.not29 = icmp eq i32 %13, 0
  br i1 %.not29, label %47, label %14

14:                                               ; preds = %11
  %15 = tail call ptr @d2i_X509_bio(ptr noundef %12, ptr noundef null) #4
  %16 = tail call i32 @test_ptr(ptr noundef nonnull @.str.11, i32 noundef 156, ptr noundef nonnull @.str.15, ptr noundef %15) #4
  %.not30 = icmp eq i32 %16, 0
  br i1 %.not30, label %47, label %17

17:                                               ; preds = %14
  %18 = tail call i64 @ERR_peek_error() #4
  %19 = trunc i64 %18 to i32
  %20 = tail call i32 @test_int_eq(ptr noundef nonnull @.str.11, i32 noundef 157, ptr noundef nonnull @.str.16, ptr noundef nonnull @.str.17, i32 noundef %19, i32 noundef 0) #4
  %.not31 = icmp eq i32 %20, 0
  br i1 %.not31, label %47, label %21

21:                                               ; preds = %17
  %22 = tail call ptr @X509_STORE_new() #4
  %23 = tail call i32 @test_ptr(ptr noundef nonnull @.str.11, i32 noundef 158, ptr noundef nonnull @.str.18, ptr noundef %22) #4
  %.not32 = icmp eq i32 %23, 0
  br i1 %.not32, label %47, label %24

24:                                               ; preds = %21
  %25 = tail call i32 @X509_STORE_add_cert(ptr noundef %22, ptr noundef %15) #4
  %26 = icmp ne i32 %25, 0
  %27 = zext i1 %26 to i32
  %28 = tail call i32 @test_true(ptr noundef nonnull @.str.11, i32 noundef 159, ptr noundef nonnull @.str.19, i32 noundef %27) #4
  %.not33 = icmp eq i32 %28, 0
  br i1 %.not33, label %47, label %29

29:                                               ; preds = %24
  %30 = tail call ptr @SMIME_read_PKCS7(ptr noundef %2, ptr noundef null) #4
  %31 = tail call i32 @test_ptr(ptr noundef nonnull @.str.11, i32 noundef 160, ptr noundef nonnull @.str.20, ptr noundef %30) #4
  %.not34 = icmp eq i32 %31, 0
  br i1 %.not34, label %47, label %32

32:                                               ; preds = %29
  %33 = tail call i64 @ERR_peek_error() #4
  %34 = trunc i64 %33 to i32
  %35 = tail call i32 @test_int_eq(ptr noundef nonnull @.str.11, i32 noundef 161, ptr noundef nonnull @.str.16, ptr noundef nonnull @.str.17, i32 noundef %34, i32 noundef 0) #4
  %.not35 = icmp eq i32 %35, 0
  br i1 %.not35, label %47, label %36

36:                                               ; preds = %32
  %37 = tail call i32 @PKCS7_verify(ptr noundef %30, ptr noundef null, ptr noundef %22, ptr noundef %9, ptr noundef null, i32 noundef 1) #4
  %38 = icmp ne i32 %37, 0
  %39 = zext i1 %38 to i32
  %40 = tail call i32 @test_true(ptr noundef nonnull @.str.11, i32 noundef 162, ptr noundef nonnull @.str.21, i32 noundef %39) #4
  %.not36 = icmp eq i32 %40, 0
  br i1 %.not36, label %47, label %41

41:                                               ; preds = %36
  %42 = tail call i64 @ERR_peek_error() #4
  %43 = trunc i64 %42 to i32
  %44 = tail call i32 @test_int_eq(ptr noundef nonnull @.str.11, i32 noundef 163, ptr noundef nonnull @.str.16, ptr noundef nonnull @.str.17, i32 noundef %43, i32 noundef 0) #4
  %45 = icmp ne i32 %44, 0
  %46 = zext i1 %45 to i32
  br label %47

47:                                               ; preds = %8, %11, %14, %17, %21, %24, %29, %32, %36, %41, %0
  %.026 = phi ptr [ null, %0 ], [ %9, %41 ], [ %9, %36 ], [ %9, %32 ], [ %9, %29 ], [ %9, %24 ], [ %9, %21 ], [ %9, %17 ], [ %9, %14 ], [ %9, %11 ], [ %9, %8 ]
  %.024 = phi ptr [ null, %0 ], [ %12, %41 ], [ %12, %36 ], [ %12, %32 ], [ %12, %29 ], [ %12, %24 ], [ %12, %21 ], [ %12, %17 ], [ %12, %14 ], [ %12, %11 ], [ null, %8 ]
  %.022 = phi ptr [ null, %0 ], [ %15, %41 ], [ %15, %36 ], [ %15, %32 ], [ %15, %29 ], [ %15, %24 ], [ %15, %21 ], [ %15, %17 ], [ %15, %14 ], [ null, %11 ], [ null, %8 ]
  %.020 = phi ptr [ null, %0 ], [ %22, %41 ], [ %22, %36 ], [ %22, %32 ], [ %22, %29 ], [ %22, %24 ], [ %22, %21 ], [ null, %17 ], [ null, %14 ], [ null, %11 ], [ null, %8 ]
  %.019 = phi ptr [ null, %0 ], [ %30, %41 ], [ %30, %36 ], [ %30, %32 ], [ %30, %29 ], [ null, %24 ], [ null, %21 ], [ null, %17 ], [ null, %14 ], [ null, %11 ], [ null, %8 ]
  %.0 = phi i32 [ 0, %0 ], [ %46, %41 ], [ 0, %36 ], [ 0, %32 ], [ 0, %29 ], [ 0, %24 ], [ 0, %21 ], [ 0, %17 ], [ 0, %14 ], [ 0, %11 ], [ 0, %8 ]
  tail call void @X509_STORE_free(ptr noundef %.020) #4
  tail call void @X509_free(ptr noundef %.022) #4
  tail call void @PKCS7_free(ptr noundef %.019) #4
  %48 = tail call i32 @BIO_free(ptr noundef %.026) #4
  %49 = tail call i32 @BIO_free(ptr noundef %.024) #4
  %50 = tail call i32 @BIO_free(ptr noundef %2) #4
  ret i32 %.0
}